target datalayout = "e-m:e-p270:32:32-p271:32:32-p272:64:64-i64:64-i128:128-f80:128-n8:16:32:64-S128"
target triple = "x86_64-pc-linux-gnu"

%struct.AVFilterLink = type { ptr, ptr, ptr, ptr, i32, i32, i32, i32, %struct.AVRational, i32, i32, i32, %struct.AVChannelLayout, %struct.AVRational, ptr, i32, %struct.AVFilterFormatsConfig, %struct.AVFilterFormatsConfig }
%struct.AVChannelLayout = type { i32, i32, %union.anon.1, ptr }
%union.anon.1 = type { i64 }
%struct.AVRational = type { i32, i32 }
%struct.AVFilterFormatsConfig = type { ptr, ptr, ptr, ptr, ptr }
%struct.AVFilterContext = type { ptr, ptr, ptr, ptr, ptr, i32, ptr, ptr, i32, ptr, ptr, i32, i32, ptr, ptr, ptr, ptr, i32, ptr, i32, i32 }
%struct.ChromaShiftContext = type { ptr, i32, i32, i32, i32, i32, i32, i32, i32, i32, i32, i32, i32, i32, i32, i32, [4 x i32], [4 x i32], [4 x i32], ptr, i32, [2 x ptr] }
%struct.AVFilter = type { ptr, ptr, ptr, ptr, ptr, i32 }
%struct.AVPixFmtDescriptor = type { ptr, i8, i8, i8, i64, [4 x %struct.AVComponentDescriptor], ptr }
%struct.AVComponentDescriptor = type { i32, i32, i32, i32, i32 }

@.str.2 = private unnamed_addr constant [10 x i8] c"rgbashift\00", align 1

; Function Attrs: nounwind uwtable
define internal i32 @config_input(ptr noundef %0) #1 {
  %2 = alloca ptr, align 8
  %3 = alloca ptr, align 8
  %4 = alloca ptr, align 8
  %5 = alloca ptr, align 8
  store ptr %0, ptr %2, align 8, !tbaa !4
  call void @llvm.lifetime.start.p0(i64 8, ptr %3) #6
  %6 = load ptr, ptr %2, align 8, !tbaa !4
  %7 = getelementptr inbounds nuw %struct.AVFilterLink, ptr %6, i32 0, i32 2
  %8 = load ptr, ptr %7, align 8, !tbaa !11
  store ptr %8, ptr %3, align 8, !tbaa !23
  call void @llvm.lifetime.start.p0(i64 8, ptr %4) #6
  %9 = load ptr, ptr %3, align 8, !tbaa !23
  %10 = getelementptr inbounds nuw %struct.AVFilterContext, ptr %9, i32 0, i32 9
  %11 = load ptr, ptr %10, align 8, !tbaa !34
  store ptr %11, ptr %4, align 8, !tbaa !35
  call void @llvm.lifetime.start.p0(i64 8, ptr %5) #6
  %12 = load ptr, ptr %2, align 8, !tbaa !4
  %13 = getelementptr inbounds nuw %struct.AVFilterLink, ptr %12, i32 0, i32 5
  %14 = load i32, ptr %13, align 4, !tbaa !46
  %15 = call ptr @av_pix_fmt_desc_get(i32 noundef %14)
  store ptr %15, ptr %5, align 8, !tbaa !47
  %16 = load ptr, ptr %3, align 8, !tbaa !23
  %17 = getelementptr inbounds nuw %struct.AVFilterContext, ptr %16, i32 0, i32 1
  %18 = load ptr, ptr %17, align 8, !tbaa !49
  %19 = getelementptr inbounds nuw %struct.AVFilter, ptr %18, i32 0, i32 0
  %20 = load ptr, ptr %19, align 8, !tbaa !50
  %21 = call i32 @strcmp(ptr noundef %20, ptr noundef @.str.2) #7
  %22 = icmp ne i32 %21, 0
  %23 = xor i1 %22, true
  %24 = zext i1 %23 to i32
  %25 = load ptr, ptr %4, align 8, !tbaa !35
  %26 = getelementptr inbounds nuw %struct.ChromaShiftContext, ptr %25, i32 0, i32 20
  store i32 %24, ptr %26, align 8, !tbaa !41
  %27 = load ptr, ptr %5, align 8, !tbaa !47
  %28 = getelementptr inbounds nuw %struct.AVPixFmtDescriptor, ptr %27, i32 0, i32 5
  %29 = getelementptr inbounds [4 x %struct.AVComponentDescriptor], ptr %28, i64 0, i64 0
  %30 = getelementptr inbounds nuw %struct.AVComponentDescriptor, ptr %29, i32 0, i32 4
  %31 = load i32, ptr %30, align 8, !tbaa !52
  %32 = load ptr, ptr %4, align 8, !tbaa !35
  %33 = getelementptr inbounds nuw %struct.ChromaShiftContext, ptr %32, i32 0, i32 15
  store i32 %31, ptr %33, align 8, !tbaa !54
  %34 = load ptr, ptr %5, align 8, !tbaa !47
  %35 = getelementptr inbounds nuw %struct.AVPixFmtDescriptor, ptr %34, i32 0, i32 1
  %36 = load i8, ptr %35, align 8, !tbaa !55
  %37 = zext i8 %36 to i32
  %38 = load ptr, ptr %4, align 8, !tbaa !35
  %39 = getelementptr inbounds nuw %struct.ChromaShiftContext, ptr %38, i32 0, i32 14
  store i32 %37, ptr %39, align 4, !tbaa !58
  %40 = load ptr, ptr %4, align 8, !tbaa !35
  %41 = getelementptr inbounds nuw %struct.ChromaShiftContext, ptr %40, i32 0, i32 20
  %42 = load i32, ptr %41, align 8, !tbaa !41
  %43 = icmp ne i32 %42, 0
  br i1 %43, label %44, label %61

44:                                               ; preds = %1
  %45 = load ptr, ptr %4, align 8, !tbaa !35
  %46 = getelementptr inbounds nuw %struct.ChromaShiftContext, ptr %45, i32 0, i32 15
  %47 = load i32, ptr %46, align 8, !tbaa !54
  %48 = icmp sgt i32 %47, 8
  %49 = select i1 %48, ptr @rgbawrap_slice16, ptr @rgbawrap_slice8
  %50 = load ptr, ptr %4, align 8, !tbaa !35
  %51 = getelementptr inbounds nuw %struct.ChromaShiftContext, ptr %50, i32 0, i32 21
  %52 = getelementptr inbounds [2 x ptr], ptr %51, i64 0, i64 1
  store ptr %49, ptr %52, align 8, !tbaa !45
  %53 = load ptr, ptr %4, align 8, !tbaa !35
  %54 = getelementptr inbounds nuw %struct.ChromaShiftContext, ptr %53, i32 0, i32 15
  %55 = load i32, ptr %54, align 8, !tbaa !54
  %56 = icmp sgt i32 %55, 8
  %57 = select i1 %56, ptr @rgbasmear_slice16, ptr @rgbasmear_slice8
  %58 = load ptr, ptr %4, align 8, !tbaa !35
  %59 = getelementptr inbounds nuw %struct.ChromaShiftContext, ptr %58, i32 0, i32 21
  %60 = getelementptr inbounds [2 x ptr], ptr %59, i64 0, i64 0
  store ptr %57, ptr %60, align 8, !tbaa !45
  br label %78

61:                                               ; preds = %1
  %62 = load ptr, ptr %4, align 8, !tbaa !35
  %63 = getelementptr inbounds nuw %struct.ChromaShiftContext, ptr %62, i32 0, i32 15
  %64 = load i32, ptr %63, align 8, !tbaa !54
  %65 = icmp sgt i32 %64, 8
  %66 = select i1 %65, ptr @wrap_slice16, ptr @wrap_slice8
  %67 = load ptr, ptr %4, align 8, !tbaa !35
  %68 = getelementptr inbounds nuw %struct.ChromaShiftContext, ptr %67, i32 0, i32 21
  %69 = getelementptr inbounds [2 x ptr], ptr %68, i64 0, i64 1
  store ptr %66, ptr %69, align 8, !tbaa !45
  %70 = load ptr, ptr %4, align 8, !tbaa !35
  %71 = getelementptr inbounds nuw %struct.ChromaShiftContext, ptr %70, i32 0, i32 15
  %72 = load i32, ptr %71, align 8, !tbaa !54
  %73 = icmp sgt i32 %72, 8
  %74 = select i1 %73, ptr @smear_slice16, ptr @smear_slice8
  %75 = load ptr, ptr %4, align 8, !tbaa !35
  %76 = getelementptr inbounds nuw %struct.ChromaShiftContext, ptr %75, i32 0, i32 21
  %77 = getelementptr inbounds [2 x ptr], ptr %76, i64 0, i64 0
  store ptr %74, ptr %77, align 8, !tbaa !45
  br label %78

78:                                               ; preds = %61, %44
  %79 = load ptr, ptr %5, align 8, !tbaa !47
  %80 = getelementptr inbounds nuw %struct.AVPixFmtDescriptor, ptr %79, i32 0, i32 3
  %81 = load i8, ptr %80, align 2, !tbaa !59
  %82 = call i1 @llvm.is.constant.i8(i8 %81)
  br i1 %82, label %94, label %83

83:                                               ; preds = %78
  %84 = load ptr, ptr %2, align 8, !tbaa !4
  %85 = getelementptr inbounds nuw %struct.AVFilterLink, ptr %84, i32 0, i32 7
  %86 = load i32, ptr %85, align 4, !tbaa !38
  %87 = sub nsw i32 0, %86
  %88 = load ptr, ptr %5, align 8, !tbaa !47
  %89 = getelementptr inbounds nuw %struct.AVPixFmtDescriptor, ptr %88, i32 0, i32 3
  %90 = load i8, ptr %89, align 2, !tbaa !59
  %91 = zext i8 %90 to i32
  %92 = ashr i32 %87, %91
  %93 = sub nsw i32 0, %92
  br label %110

94:                                               ; preds = %78
  %95 = load ptr, ptr %2, align 8, !tbaa !4
  %96 = getelementptr inbounds nuw %struct.AVFilterLink, ptr %95, i32 0, i32 7
  %97 = load i32, ptr %96, align 4, !tbaa !38
  %98 = load ptr, ptr %5, align 8, !tbaa !47
  %99 = getelementptr inbounds nuw %struct.AVPixFmtDescriptor, ptr %98, i32 0, i32 3
  %100 = load i8, ptr %99, align 2, !tbaa !59
  %101 = zext i8 %100 to i32
  %102 = shl i32 1, %101
  %103 = add nsw i32 %97, %102
  %104 = sub nsw i32 %103, 1
  %105 = load ptr, ptr %5, align 8, !tbaa !47
  %106 = getelementptr inbounds nuw %struct.AVPixFmtDescriptor, ptr %105, i32 0, i32 3
  %107 = load i8, ptr %106, align 2, !tbaa !59
  %108 = zext i8 %107 to i32
  %109 = ashr i32 %104, %108
  br label %110

110:                                              ; preds = %94, %83
  %111 = phi i32 [ %93, %83 ], [ %109, %94 ]
  %112 = load ptr, ptr %4, align 8, !tbaa !35
  %113 = getelementptr inbounds nuw %struct.ChromaShiftContext, ptr %112, i32 0, i32 16
  %114 = getelementptr inbounds [4 x i32], ptr %113, i64 0, i64 2
  store i32 %111, ptr %114, align 4, !tbaa !43
  %115 = load ptr, ptr %4, align 8, !tbaa !35
  %116 = getelementptr inbounds nuw %struct.ChromaShiftContext, ptr %115, i32 0, i32 16
  %117 = getelementptr inbounds [4 x i32], ptr %116, i64 0, i64 1
  store i32 %111, ptr %117, align 4, !tbaa !43
  %118 = load ptr, ptr %2, align 8, !tbaa !4
  %119 = getelementptr inbounds nuw %struct.AVFilterLink, ptr %118, i32 0, i32 7
  %120 = load i32, ptr %119, align 4, !tbaa !38
  %121 = load ptr, ptr %4, align 8, !tbaa !35
  %122 = getelementptr inbounds nuw %struct.ChromaShiftContext, ptr %121, i32 0, i32 16
  %123 = getelementptr inbounds [4 x i32], ptr %122, i64 0, i64 3
  store i32 %120, ptr %123, align 4, !tbaa !43
  %124 = load ptr, ptr %4, align 8, !tbaa !35
  %125 = getelementptr inbounds nuw %struct.ChromaShiftContext, ptr %124, i32 0, i32 16
  %126 = getelementptr inbounds [4 x i32], ptr %125, i64 0, i64 0
  store i32 %120, ptr %126, align 4, !tbaa !43
  %127 = load ptr, ptr %5, align 8, !tbaa !47
  %128 = getelementptr inbounds nuw %struct.AVPixFmtDescriptor, ptr %127, i32 0, i32 2
  %129 = load i8, ptr %128, align 1, !tbaa !60
  %130 = call i1 @llvm.is.constant.i8(i8 %129)
  br i1 %130, label %142, label %131

131:                                              ; preds = %110
  %132 = load ptr, ptr %2, align 8, !tbaa !4
  %133 = getelementptr inbounds nuw %struct.AVFilterLink, ptr %132, i32 0, i32 6
  %134 = load i32, ptr %133, align 8, !tbaa !37
  %135 = sub nsw i32 0, %134
  %136 = load ptr, ptr %5, align 8, !tbaa !47
  %137 = getelementptr inbounds nuw %struct.AVPixFmtDescriptor, ptr %136, i32 0, i32 2
  %138 = load i8, ptr %137, align 1, !tbaa !60
  %139 = zext i8 %138 to i32
  %140 = ashr i32 %135, %139
  %141 = sub nsw i32 0, %140
  br label %158

142:                                              ; preds = %110
  %143 = load ptr, ptr %2, align 8, !tbaa !4
  %144 = getelementptr inbounds nuw %struct.AVFilterLink, ptr %143, i32 0, i32 6
  %145 = load i32, ptr %144, align 8, !tbaa !37
  %146 = load ptr, ptr %5, align 8, !tbaa !47
  %147 = getelementptr inbounds nuw %struct.AVPixFmtDescriptor, ptr %146, i32 0, i32 2
  %148 = load i8, ptr %147, align 1, !tbaa !60
  %149 = zext i8 %148 to i32
  %150 = shl i32 1, %149
  %151 = add nsw i32 %145, %150
  %152 = sub nsw i32 %151, 1
  %153 = load ptr, ptr %5, align 8, !tbaa !47
  %154 = getelementptr inbounds nuw %struct.AVPixFmtDescriptor, ptr %153, i32 0, i32 2
  %155 = load i8, ptr %154, align 1, !tbaa !60
  %156 = zext i8 %155 to i32
  %157 = ashr i32 %152, %156
  br label %158

158:                                              ; preds = %142, %131
  %159 = phi i32 [ %141, %131 ], [ %157, %142 ]
  %160 = load ptr, ptr %4, align 8, !tbaa !35
  %161 = getelementptr inbounds nuw %struct.ChromaShiftContext, ptr %160, i32 0, i32 17
  %162 = getelementptr inbounds [4 x i32], ptr %161, i64 0, i64 2
  store i32 %159, ptr %162, align 4, !tbaa !43
  %163 = load ptr, ptr %4, align 8, !tbaa !35
  %164 = getelementptr inbounds nuw %struct.ChromaShiftContext, ptr %163, i32 0, i32 17
  %165 = getelementptr inbounds [4 x i32], ptr %164, i64 0, i64 1
  store i32 %159, ptr %165, align 4, !tbaa !43
  %166 = load ptr, ptr %2, align 8, !tbaa !4
  %167 = getelementptr inbounds nuw %struct.AVFilterLink, ptr %166, i32 0, i32 6
  %168 = load i32, ptr %167, align 8, !tbaa !37
  %169 = load ptr, ptr %4, align 8, !tbaa !35
  %170 = getelementptr inbounds nuw %struct.ChromaShiftContext, ptr %169, i32 0, i32 17
  %171 = getelementptr inbounds [4 x i32], ptr %170, i64 0, i64 3
  store i32 %168, ptr %171, align 4, !tbaa !43
  %172 = load ptr, ptr %4, align 8, !tbaa !35
  %173 = getelementptr inbounds nuw %struct.ChromaShiftContext, ptr %172, i32 0, i32 17
  %174 = getelementptr inbounds [4 x i32], ptr %173, i64 0, i64 0
  store i32 %168, ptr %174, align 4, !tbaa !43
  %175 = load ptr, ptr %4, align 8, !tbaa !35
  %176 = getelementptr inbounds nuw %struct.ChromaShiftContext, ptr %175, i32 0, i32 18
  %177 = getelementptr inbounds [4 x i32], ptr %176, i64 0, i64 0
  %178 = load ptr, ptr %2, align 8, !tbaa !4
  %179 = getelementptr inbounds nuw %struct.AVFilterLink, ptr %178, i32 0, i32 5
  %180 = load i32, ptr %179, align 4, !tbaa !46
  %181 = load ptr, ptr %2, align 8, !tbaa !4
  %182 = getelementptr inbounds nuw %struct.AVFilterLink, ptr %181, i32 0, i32 6
  %183 = load i32, ptr %182, align 8, !tbaa !37
  %184 = call i32 @av_image_fill_linesizes(ptr noundef %177, i32 noundef %180, i32 noundef %183)
  call void @llvm.lifetime.end.p0(i64 8, ptr %5) #6
  call void @llvm.lifetime.end.p0(i64 8, ptr %4) #6
  call void @llvm.lifetime.end.p0(i64 8, ptr %3) #6
  ret i32 %184
}