; Function Attrs: nounwind uwtable
define internal i32 @config_input(ptr noundef readonly captures(none) %0) #1 {
  %2 = getelementptr inbounds nuw i8, ptr %0, i64 16
  %3 = load ptr, ptr %2, align 8, !tbaa !9
  %4 = getelementptr inbounds nuw i8, ptr %3, i64 72
  %5 = load ptr, ptr %4, align 8, !tbaa !33
  %6 = getelementptr inbounds nuw i8, ptr %0, i64 36
  %7 = load i32, ptr %6, align 4, !tbaa !43
  %8 = tail call ptr @av_pix_fmt_desc_get(i32 noundef %7) #6
  %9 = getelementptr inbounds nuw i8, ptr %3, i64 8
  %10 = load ptr, ptr %9, align 8, !tbaa !44
  %11 = load ptr, ptr %10, align 8, !tbaa !45
  %12 = tail call i32 @strcmp(ptr noundef nonnull dereferenceable(1) %11, ptr noundef nonnull dereferenceable(10) @.str.2) #7
  %.not = icmp eq i32 %12, 0
  %13 = zext i1 %.not to i32
  %14 = getelementptr inbounds nuw i8, ptr %5, i64 128
  store i32 %13, ptr %14, align 8, !tbaa !38
  %15 = getelementptr inbounds nuw i8, ptr %8, i64 40
  %16 = load i32, ptr %15, align 8, !tbaa !47
  %17 = getelementptr inbounds nuw i8, ptr %5, i64 64
  store i32 %16, ptr %17, align 8, !tbaa !49
  %18 = getelementptr inbounds nuw i8, ptr %8, i64 8
  %19 = load i8, ptr %18, align 8, !tbaa !50
  %20 = zext i8 %19 to i32
  %21 = getelementptr inbounds nuw i8, ptr %5, i64 60
  store i32 %20, ptr %21, align 4, !tbaa !53
  %22 = icmp sgt i32 %16, 8
  %23 = select i1 %22, ptr @rgbawrap_slice16, ptr @rgbawrap_slice8
  %24 = select i1 %22, ptr @rgbasmear_slice16, ptr @rgbasmear_slice8
  %25 = select i1 %22, ptr @wrap_slice16, ptr @wrap_slice8
  %26 = select i1 %22, ptr @smear_slice16, ptr @smear_slice8
  %.sink45 = select i1 %.not, ptr %23, ptr %25
  %.sink = select i1 %.not, ptr %24, ptr %26
  %27 = getelementptr inbounds nuw i8, ptr %5, i64 144
  store ptr %.sink45, ptr %27, align 8, !tbaa !42
  %28 = getelementptr inbounds nuw i8, ptr %5, i64 136
  store ptr %.sink, ptr %28, align 8, !tbaa !42
  %29 = getelementptr inbounds nuw i8, ptr %0, i64 44
  %30 = load i32, ptr %29, align 4, !tbaa !35
  %31 = sub nsw i32 0, %30
  %32 = getelementptr inbounds nuw i8, ptr %8, i64 10
  %33 = load i8, ptr %32, align 2, !tbaa !54
  %34 = zext nneg i8 %33 to i32
  %35 = ashr i32 %31, %34
  %36 = sub nsw i32 0, %35
  %37 = getelementptr inbounds nuw i8, ptr %5, i64 68
  %38 = getelementptr inbounds nuw i8, ptr %5, i64 76
  store i32 %36, ptr %38, align 4, !tbaa !40
  %39 = getelementptr inbounds nuw i8, ptr %5, i64 72
  store i32 %36, ptr %39, align 4, !tbaa !40
  %40 = getelementptr inbounds nuw i8, ptr %0, i64 44
  %41 = load i32, ptr %40, align 4, !tbaa !35
  %42 = getelementptr inbounds nuw i8, ptr %5, i64 80
  store i32 %41, ptr %42, align 4, !tbaa !40
  store i32 %41, ptr %37, align 4, !tbaa !40
  %43 = getelementptr inbounds nuw i8, ptr %0, i64 40
  %44 = load i32, ptr %43, align 8, !tbaa !34
  %45 = sub nsw i32 0, %44
  %46 = getelementptr inbounds nuw i8, ptr %8, i64 9
  %47 = load i8, ptr %46, align 1, !tbaa !55
  %48 = zext nneg i8 %47 to i32
  %49 = ashr i32 %45, %48
  %50 = sub nsw i32 0, %49
  %51 = getelementptr inbounds nuw i8, ptr %5, i64 84
  %52 = getelementptr inbounds nuw i8, ptr %5, i64 92
  store i32 %50, ptr %52, align 4, !tbaa !40
  %53 = getelementptr inbounds nuw i8, ptr %5, i64 88
  store i32 %50, ptr %53, align 4, !tbaa !40
  %54 = getelementptr inbounds nuw i8, ptr %0, i64 40
  %55 = load i32, ptr %54, align 8, !tbaa !34
  %56 = getelementptr inbounds nuw i8, ptr %5, i64 96
  store i32 %55, ptr %56, align 4, !tbaa !40
  store i32 %55, ptr %51, align 4, !tbaa !40
  %57 = getelementptr inbounds nuw i8, ptr %5, i64 100
  %58 = load i32, ptr %6, align 4, !tbaa !43
  %59 = load i32, ptr %54, align 8, !tbaa !34
  %60 = tail call i32 @av_image_fill_linesizes(ptr noundef nonnull %57, i32 noundef %58, i32 noundef %59) #6
  ret i32 %60
}